target datalayout = "e-m:e-p270:32:32-p271:32:32-p272:64:64-i64:64-i128:128-f80:128-n8:16:32:64-S128"
target triple = "x86_64-pc-linux-gnu"

%struct._php_stream_xport_param = type { i32, i8, %struct.anon.8, %struct.anon.9 }
%struct.anon.8 = type { ptr, i64, ptr, ptr, ptr, i64, i32, i32, i32 }
%struct.anon.9 = type { ptr, ptr, i32, ptr, ptr, i32, i32 }

; Function Attrs: nounwind uwtable
define i32 @php_stream_xport_connect(ptr noundef %0, ptr noundef %1, i64 noundef %2, i32 noundef %3, ptr noundef %4, ptr noundef %5, ptr noundef %6) #0 {
  %8 = alloca i32, align 4
  %9 = alloca ptr, align 8
  %10 = alloca ptr, align 8
  %11 = alloca i64, align 8
  %12 = alloca i32, align 4
  %13 = alloca ptr, align 8
  %14 = alloca ptr, align 8
  %15 = alloca ptr, align 8
  %16 = alloca %struct._php_stream_xport_param, align 8
  %17 = alloca i32, align 4
  store ptr %0, ptr %9, align 8
  store ptr %1, ptr %10, align 8
  store i64 %2, ptr %11, align 8
  store i32 %3, ptr %12, align 4
  store ptr %4, ptr %13, align 8
  store ptr %5, ptr %14, align 8
  store ptr %6, ptr %15, align 8
  call void @llvm.memset.p0.i64(ptr align 8 %16, i8 0, i64 120, i1 false)
  %18 = load i32, ptr %12, align 4
  %19 = icmp ne i32 %18, 0
  %20 = select i1 %19, i32 4, i32 1
  %21 = getelementptr inbounds %struct._php_stream_xport_param, ptr %16, i32 0, i32 0
  store i32 %20, ptr %21, align 8
  %22 = load ptr, ptr %10, align 8
  %23 = getelementptr inbounds %struct._php_stream_xport_param, ptr %16, i32 0, i32 2
  %24 = getelementptr inbounds %struct.anon.8, ptr %23, i32 0, i32 0
  store ptr %22, ptr %24, align 8
  %25 = load i64, ptr %11, align 8
  %26 = getelementptr inbounds %struct._php_stream_xport_param, ptr %16, i32 0, i32 2
  %27 = getelementptr inbounds %struct.anon.8, ptr %26, i32 0, i32 1
  store i64 %25, ptr %27, align 8
  %28 = load ptr, ptr %13, align 8
  %29 = getelementptr inbounds %struct._php_stream_xport_param, ptr %16, i32 0, i32 2
  %30 = getelementptr inbounds %struct.anon.8, ptr %29, i32 0, i32 2
  store ptr %28, ptr %30, align 8
  %31 = load ptr, ptr %14, align 8
  %32 = icmp ne ptr %31, null
  %33 = select i1 %32, i32 1, i32 0
  %34 = getelementptr inbounds %struct._php_stream_xport_param, ptr %16, i32 0, i32 1
  %35 = trunc i32 %33 to i8
  %36 = load i8, ptr %34, align 4
  %37 = and i8 %35, 1
  %38 = shl i8 %37, 2
  %39 = and i8 %36, -5
  %40 = or i8 %39, %38
  store i8 %40, ptr %34, align 4
  %41 = load ptr, ptr %9, align 8
  %42 = call i32 @_php_stream_set_option(ptr noundef %41, i32 noundef 7, i32 noundef 0, ptr noundef %16)
  store i32 %42, ptr %17, align 4
  %43 = load i32, ptr %17, align 4
  %44 = icmp eq i32 %43, 0
  br i1 %44, label %45, label %65

45:                                               ; preds = %7
  %46 = load ptr, ptr %14, align 8
  %47 = icmp ne ptr %46, null
  br i1 %47, label %48, label %53

48:                                               ; preds = %45
  %49 = getelementptr inbounds %struct._php_stream_xport_param, ptr %16, i32 0, i32 3
  %50 = getelementptr inbounds %struct.anon.9, ptr %49, i32 0, i32 4
  %51 = load ptr, ptr %50, align 8
  %52 = load ptr, ptr %14, align 8
  store ptr %51, ptr %52, align 8
  br label %53

53:                                               ; preds = %48, %45
  %54 = load ptr, ptr %15, align 8
  %55 = icmp ne ptr %54, null
  br i1 %55, label %56, label %61

56:                                               ; preds = %53
  %57 = getelementptr inbounds %struct._php_stream_xport_param, ptr %16, i32 0, i32 3
  %58 = getelementptr inbounds %struct.anon.9, ptr %57, i32 0, i32 6
  %59 = load i32, ptr %58, align 4
  %60 = load ptr, ptr %15, align 8
  store i32 %59, ptr %60, align 4
  br label %61

61:                                               ; preds = %56, %53
  %62 = getelementptr inbounds %struct._php_stream_xport_param, ptr %16, i32 0, i32 3
  %63 = getelementptr inbounds %struct.anon.9, ptr %62, i32 0, i32 5
  %64 = load i32, ptr %63, align 8
  store i32 %64, ptr %8, align 4
  br label %67

65:                                               ; preds = %7
  %66 = load i32, ptr %17, align 4
  store i32 %66, ptr %8, align 4
  br label %67

67:                                               ; preds = %65, %61
  %68 = load i32, ptr %8, align 4
  ret i32 %68
}