; Function Attrs: nounwind uwtable
define i32 @php_stream_xport_connect(ptr noundef %0, ptr noundef %1, i64 noundef %2, i32 noundef %3, ptr noundef %4, ptr noundef writeonly %5, ptr noundef writeonly %6) local_unnamed_addr #1 {
  %8 = alloca %struct._php_stream_xport_param, align 8
  call void @llvm.memset.p0.i64(ptr noundef nonnull align 8 dereferenceable(120) %8, i8 0, i64 120, i1 false)
  %.not = icmp eq i32 %3, 0
  %9 = select i1 %.not, i32 1, i32 4
  store i32 %9, ptr %8, align 8
  %10 = getelementptr inbounds i8, ptr %8, i64 8
  store ptr %1, ptr %10, align 8
  %11 = getelementptr inbounds i8, ptr %8, i64 16
  store i64 %2, ptr %11, align 8
  %12 = getelementptr inbounds i8, ptr %8, i64 24
  store ptr %4, ptr %12, align 8
  %.not15.not = icmp eq ptr %5, null
  %13 = getelementptr inbounds i8, ptr %8, i64 4
  %14 = select i1 %.not15.not, i8 0, i8 4
  store i8 %14, ptr %13, align 4
  %15 = call i32 @_php_stream_set_option(ptr noundef %0, i32 noundef 7, i32 noundef 0, ptr noundef nonnull %8) #14
  %16 = icmp eq i32 %15, 0
  br i1 %16, label %17, label %28

17:                                               ; preds = %7
  br i1 %.not15.not, label %21, label %18

18:                                               ; preds = %17
  %19 = getelementptr inbounds i8, ptr %8, i64 104
  %20 = load ptr, ptr %19, align 8
  store ptr %20, ptr %5, align 8
  br label %21

21:                                               ; preds = %18, %17
  %.not16 = icmp eq ptr %6, null
  br i1 %.not16, label %25, label %22

22:                                               ; preds = %21
  %23 = getelementptr inbounds i8, ptr %8, i64 116
  %24 = load i32, ptr %23, align 4
  store i32 %24, ptr %6, align 4
  br label %25

25:                                               ; preds = %22, %21
  %26 = getelementptr inbounds i8, ptr %8, i64 112
  %27 = load i32, ptr %26, align 8
  br label %28

28:                                               ; preds = %7, %25
  %.0 = phi i32 [ %27, %25 ], [ %15, %7 ]
  ret i32 %.0
}